; Function Attrs: mustprogress uwtable
define noundef zeroext i1 @_ZN6casadi7Options8has_nullERKSt3mapINSt7__cxx1112basic_stringIcSt11char_traitsIcESaIcEEENS_11GenericTypeESt4lessIS7_ESaISt4pairIKS7_S8_EEE(ptr noundef nonnull readonly align 8 dereferenceable(48) %0) local_unnamed_addr #4 align 2 personality ptr @__gxx_personality_v0 {
  %2 = getelementptr inbounds i8, ptr %0, i64 24
  %3 = load ptr, ptr %2, align 8
  %4 = getelementptr inbounds i8, ptr %0, i64 8
  %.not = icmp eq ptr %3, %4
  br i1 %.not, label %._crit_edge, label %.lr.ph

.lr.ph:                                           ; preds = %1, %7
  %.sroa.05.08 = phi ptr [ %8, %7 ], [ %3, %1 ]
  %5 = getelementptr inbounds i8, ptr %.sroa.05.08, i64 64
  %6 = tail call noundef zeroext i1 @_ZNK6casadi12SharedObject7is_nullEv(ptr noundef nonnull align 8 dereferenceable(8) %5)
  br i1 %6, label %._crit_edge, label %7

7:                                                ; preds = %.lr.ph
  %8 = tail call noundef ptr @_ZSt18_Rb_tree_incrementPKSt18_Rb_tree_node_base(ptr noundef %.sroa.05.08) #21
  %.not11 = icmp eq ptr %8, %4
  br i1 %.not11, label %._crit_edge, label %.lr.ph

._crit_edge:                                      ; preds = %.lr.ph, %7, %1
  %.lcssa = phi i1 [ false, %1 ], [ %6, %7 ], [ %6, %.lr.ph ]
  ret i1 %.lcssa
}